CC8E Version 1.3D,   File: uyg.c               23. Dec 2010  14:32   Page 1

ADDR   CODE       LINE  SOURCE

                  00001 
                  00002 ; CC8E Version 1.3D, Copyright (c) B Knudsen Data
                  00003 ; C compiler for the PIC18 microcontrollers
                  00004 ; ************  23. Dec 2010  14:32  *************
                  00005 
                  00006 	processor  PIC18F452
                  00007 	radix  DEC
                  00008 
300000 F1FF       00009 	__config 0x300001, 0xF1
                  00010 	__config 0x300002, 0xF8
300002 FEF8       00011 	__config 0x300003, 0xFE
                  00012 
       0FF6       00013 TBLPTR      EQU   0xFF6
       0FF5       00014 TABLAT      EQU   0xFF5
       0002       00015 Zero_       EQU   2
       0FC4       00016 ADRESH      EQU   0xFC4
       0FC2       00017 ADCON0      EQU   0xFC2
       0FC1       00018 ADCON1      EQU   0xFC1
       0F96       00019 TRISE       EQU   0xF96
       0F95       00020 TRISD       EQU   0xF95
       0F94       00021 TRISC       EQU   0xF94
       0F93       00022 TRISB       EQU   0xF93
       0F92       00023 TRISA       EQU   0xF92
       0F83       00024 PORTD       EQU   0xF83
       0F82       00025 PORTC       EQU   0xF82
       0007       00026 GIE         EQU   7
       0002       00027 GO          EQU   2
       0000       00028 deger       EQU   0x00
       0001       00029 t           EQU   0x01
       0003       00030 x           EQU   0x03
       0001       00031 ci          EQU   0x01
                  00032 
000000 EF02 F000  00033 	GOTO main
                  00034 
                  00035   ; FILE uyg.c
                  00036 			;///////////////////////////////////////////////////////////////////////////////////////////////////////////////////////////////////////
                  00037 			;///////////////////////////////////////////////////////////////////////////////////////////////////////////////////////////////////////
                  00038 			;//Look up Table Tabanlý Sensor Doðrusallaþtýrýlmasý
                  00039 			;#pragma config[1] = 0xF1 // Osilatör: XT
                  00040 			;#pragma config[2] = 0xFE & 0xF9 // PWRT açýk, BOR kapalý
                  00041 			;#pragma config[3] = 0xFE // Watchdog Timer kapalý
                  00042 			;void ayarlar();
                  00043 			;void bekle(unsigned long t); // t milisaniye gecikme saðlayan fonksiyon tanýmý
                  00044 			;void main()
                  00045 			;{
                  00046 main
                  00047 			;unsigned static const int lookuptable[11] = {1,2,3,4,5,6,7,8,9,10,11};
                  00048 			;unsigned int deger;
                  00049 			;//y= 2 * X + 1 sensor dogrulastirma islemi
                  00050 			;ayarlar();
000004 D867       00051 	RCALL ayarlar
                  00052 			;PORTC=0;
000006 6A82       00053 	CLRF  PORTC,0
                  00054 			;anadongu:
                  00055 			;bekle(1);
000008 0E01       00056 m001	MOVLW 1
00000A 6E01       00057 	MOVWF t,0
00000C 6A02       00058 	CLRF  t+1,0
00000E D851       00059 	RCALL bekle
                  00060 			;GO=1;
CC8E Version 1.3D,   File: uyg.c               23. Dec 2010  14:32   Page 2

ADDR   CODE       LINE  SOURCE

000010 84C2       00061 	BSF   0xFC2,GO,0
                  00062 			;while(GO);
000012 B4C2       00063 m002	BTFSC 0xFC2,GO,0
000014 D7FE       00064 	BRA   m002
                  00065 			;deger=ADRESH; //okunan analog degerin digital karsiligi, deger degiskenine atýlýyor
000016 CFC4 F000  00066 	MOVFF ADRESH,deger
                  00067 			;//PORTC=deger;
                  00068 			;if(deger == 0) //0V dogrulastirmasi
00001A 5200       00069 	MOVF  deger,1,0
00001C A4D8       00070 	BTFSS 0xFD8,Zero_,0
00001E D004       00071 	BRA   m003
                  00072 			;PORTC=lookuptable[0];
000020 0E00       00073 	MOVLW 0
000022 D864       00074 	RCALL _const1
000024 6E82       00075 	MOVWF PORTC,0
                  00076 			;else if(deger == 25) //0.5V dogrulastirmasi
000026 D7F0       00077 	BRA   m001
000028 0E19       00078 m003	MOVLW 25
00002A 6200       00079 	CPFSEQ deger,0
00002C D004       00080 	BRA   m004
                  00081 			;PORTC=lookuptable[1];
00002E 0E01       00082 	MOVLW 1
000030 D85D       00083 	RCALL _const1
000032 6E82       00084 	MOVWF PORTC,0
                  00085 			;else if(deger == 51)//1V dogrulastirmasi
000034 D7E9       00086 	BRA   m001
000036 0E33       00087 m004	MOVLW 51
000038 6200       00088 	CPFSEQ deger,0
00003A D004       00089 	BRA   m005
                  00090 			;PORTC=lookuptable[2];
00003C 0E02       00091 	MOVLW 2
00003E D856       00092 	RCALL _const1
000040 6E82       00093 	MOVWF PORTC,0
                  00094 			;else if(deger == 76)//1.5V dogrulastirmasi
000042 D7E2       00095 	BRA   m001
000044 0E4C       00096 m005	MOVLW 76
000046 6200       00097 	CPFSEQ deger,0
000048 D004       00098 	BRA   m006
                  00099 			;PORTC=lookuptable[3];
00004A 0E03       00100 	MOVLW 3
00004C D84F       00101 	RCALL _const1
00004E 6E82       00102 	MOVWF PORTC,0
                  00103 			;else if(deger == 102)//2V dogrulastirmasi
000050 D7DB       00104 	BRA   m001
000052 0E66       00105 m006	MOVLW 102
000054 6200       00106 	CPFSEQ deger,0
000056 D004       00107 	BRA   m007
                  00108 			;PORTC=lookuptable[4];
000058 0E04       00109 	MOVLW 4
00005A D848       00110 	RCALL _const1
00005C 6E82       00111 	MOVWF PORTC,0
                  00112 			;else if(deger == 127)//2.5V dogrulastirmasi
00005E D7D4       00113 	BRA   m001
000060 0E7F       00114 m007	MOVLW 127
000062 6200       00115 	CPFSEQ deger,0
000064 D004       00116 	BRA   m008
                  00117 			;PORTC=lookuptable[5];
000066 0E05       00118 	MOVLW 5
000068 D841       00119 	RCALL _const1
00006A 6E82       00120 	MOVWF PORTC,0
CC8E Version 1.3D,   File: uyg.c               23. Dec 2010  14:32   Page 3

ADDR   CODE       LINE  SOURCE

                  00121 			;else if(deger == 153)//3V dogrulastirmasi
00006C D7CD       00122 	BRA   m001
00006E 0E99       00123 m008	MOVLW 153
000070 6200       00124 	CPFSEQ deger,0
000072 D004       00125 	BRA   m009
                  00126 			;PORTC=lookuptable[6];
000074 0E06       00127 	MOVLW 6
000076 D83A       00128 	RCALL _const1
000078 6E82       00129 	MOVWF PORTC,0
                  00130 			;else if(deger == 179)//3.5V dogrulastirmasi
00007A D7C6       00131 	BRA   m001
00007C 0EB3       00132 m009	MOVLW 179
00007E 6200       00133 	CPFSEQ deger,0
000080 D004       00134 	BRA   m010
                  00135 			;PORTC=lookuptable[7];
000082 0E07       00136 	MOVLW 7
000084 D833       00137 	RCALL _const1
000086 6E82       00138 	MOVWF PORTC,0
                  00139 			;else if(deger == 204)//4V dogrulastirmasi
000088 D7BF       00140 	BRA   m001
00008A 0ECC       00141 m010	MOVLW 204
00008C 6200       00142 	CPFSEQ deger,0
00008E D004       00143 	BRA   m011
                  00144 			;PORTC=lookuptable[8];
000090 0E08       00145 	MOVLW 8
000092 D82C       00146 	RCALL _const1
000094 6E82       00147 	MOVWF PORTC,0
                  00148 			;else if(deger == 230)//4.5V dogrulastirmasi
000096 D7B8       00149 	BRA   m001
000098 0EE6       00150 m011	MOVLW 230
00009A 6200       00151 	CPFSEQ deger,0
00009C D004       00152 	BRA   m012
                  00153 			;PORTC=lookuptable[9];
00009E 0E09       00154 	MOVLW 9
0000A0 D825       00155 	RCALL _const1
0000A2 6E82       00156 	MOVWF PORTC,0
                  00157 			;else if(deger == 255)//5V dogrulastirmasi
0000A4 D7B1       00158 	BRA   m001
0000A6 3C00       00159 m012	INCFSZ deger,W,0
0000A8 D7AF       00160 	BRA   m001
                  00161 			;PORTC=lookuptable[10];
0000AA 0E0A       00162 	MOVLW 10
0000AC D81F       00163 	RCALL _const1
0000AE 6E82       00164 	MOVWF PORTC,0
                  00165 			;goto anadongu;
0000B0 D7AB       00166 	BRA   m001
                  00167 			;}
                  00168 			;//////////////////////////////////////////////////////////////////////////////////////////////////
                  00169 			;void bekle(unsigned long t) //t milisaniye gecikme saðlar
                  00170 			;{
                  00171 bekle
                  00172 			;unsigned x;
                  00173 			;for(;t>0;t--)
0000B2 5001       00174 m013	MOVF  t,W,0
0000B4 1002       00175 	IORWF t+1,W,0
0000B6 B4D8       00176 	BTFSC 0xFD8,Zero_,0
0000B8 D00C       00177 	BRA   m016
                  00178 			;for(x=140;x>0;x--)
0000BA 0E8C       00179 	MOVLW 140
0000BC 6E03       00180 	MOVWF x,0
CC8E Version 1.3D,   File: uyg.c               23. Dec 2010  14:32   Page 4

ADDR   CODE       LINE  SOURCE

0000BE 5203       00181 m014	MOVF  x,1,0
0000C0 B4D8       00182 	BTFSC 0xFD8,Zero_,0
0000C2 D003       00183 	BRA   m015
                  00184 			;nop();
0000C4 0000       00185 	NOP  
0000C6 0603       00186 	DECF  x,1,0
0000C8 D7FA       00187 	BRA   m014
0000CA 0601       00188 m015	DECF  t,1,0
0000CC 0E00       00189 	MOVLW 0
0000CE 5A02       00190 	SUBWFB t+1,1,0
0000D0 D7F0       00191 	BRA   m013
                  00192 			;}
0000D2 0012       00193 m016	RETURN
                  00194 			;//////////////////////////////////////////////////////////////////////////////////////////////////
                  00195 			;void ayarlar() // Bütün baþlangýç ayarlarýnýn tamamlandýðý kýsým
                  00196 			;{
                  00197 ayarlar
                  00198 			;GIE=0; // Bütün kesmeleri kapat
0000D4 9EF2       00199 	BCF   0xFF2,GIE,0
                  00200 			;TRISA=0xFF;
0000D6 6892       00201 	SETF  TRISA,0
                  00202 			;TRISB=0xFF;
0000D8 6893       00203 	SETF  TRISB,0
                  00204 			;TRISC=0x00;
0000DA 6A94       00205 	CLRF  TRISC,0
                  00206 			;TRISD=0x00;
0000DC 6A95       00207 	CLRF  TRISD,0
                  00208 			;TRISE=0xFF;
0000DE 6896       00209 	SETF  TRISE,0
                  00210 			;PORTC=0x00;
0000E0 6A82       00211 	CLRF  PORTC,0
                  00212 			;PORTD=0x00;
0000E2 6A83       00213 	CLRF  PORTD,0
                  00214 			;ADCON0=0b.0100.0001;;
0000E4 0E41       00215 	MOVLW 65
0000E6 6EC2       00216 	MOVWF ADCON0,0
                  00217 			;ADCON1=0b.0000.0000;;
0000E8 6AC1       00218 	CLRF  ADCON1,0
                  00219 			;}
0000EA 0012       00220 	RETURN
                  00221 _const1
0000EC 6E01       00222 	MOVWF ci,0
0000EE 5001       00223 	MOVF  ci,W,0
0000F0 0F02       00224 	ADDLW 2
0000F2 6EF6       00225 	MOVWF TBLPTR,0
0000F4 0E01       00226 	MOVLW 1
0000F6 6AF7       00227 	CLRF  TBLPTR+1,0
0000F8 22F7       00228 	ADDWFC TBLPTR+1,1,0
0000FA 6AF8       00229 	CLRF  TBLPTR+2,0
0000FC 0008       00230 	TBLRD *
0000FE 50F5       00231 	MOVF  TABLAT,W,0
000100 0012       00232 	RETURN
000102 0201       00233 	DW    0x201
000104 0403       00234 	DW    0x403
000106 0605       00235 	DW    0x605
000108 0807       00236 	DW    0x807
00010A 0A09       00237 	DW    0xA09
00010C 000B       00238 	DW    0xB
                  00239 
                  00240 	END
CC8E Version 1.3D,   File: uyg.c               23. Dec 2010  14:32   Page 5

ADDR   CODE       LINE  SOURCE

                  00241 
                  00242 
                  00243 ; *** KEY INFO ***
                  00244 
                  00245 ; 0x0000D4   12 word(s)  0 % : ayarlar
                  00246 ; 0x0000B2   17 word(s)  0 % : bekle
                  00247 ; 0x000004   87 word(s)  0 % : main
                  00248 ; 0x0000EC   17 word(s)  0 % : _const1
                  00249 
                  00250 ; RAM usage: 4 bytes (4 local), 1532 bytes free
                  00251 ; Maximum call level: 1
                  00252 ; Total of 135 code words (0 %)
